; Function Attrs: mustprogress uwtable
define dso_local void @_ZN7AstNode12encodeNumberB5cxx11El(ptr dead_on_unwind noalias writable sret(%"class.std::__cxx11::basic_string") align 8 %0, i64 noundef %1) local_unnamed_addr #4 align 2 personality ptr @__gxx_personality_v0 {
  %3 = alloca %"class.std::__cxx11::basic_ostringstream", align 8
  %4 = alloca %"class.std::__cxx11::basic_ostringstream", align 8
  %5 = alloca %"class.std::__cxx11::basic_string", align 8
  %6 = icmp slt i64 %1, 0
  br i1 %6, label %7, label %17

7:                                                ; preds = %2
  %8 = sub nsw i64 0, %1
  call void @llvm.lifetime.start.p0(i64 376, ptr nonnull %4)
  call void @_ZNSt7__cxx1119basic_ostringstreamIcSt11char_traitsIcESaIcEEC1Ev(ptr noundef nonnull align 8 dereferenceable(112) %4), !noalias !7
  %9 = invoke noundef nonnull align 8 dereferenceable(8) ptr @_ZNSolsEl(ptr noundef nonnull align 8 dereferenceable(8) %4, i64 noundef %8)
          to label %10 unwind label %11, !noalias !7

10:                                               ; preds = %7
  invoke void @_ZNKSt7__cxx1119basic_ostringstreamIcSt11char_traitsIcESaIcEE3strEv(ptr dead_on_unwind nonnull writable sret(%"class.std::__cxx11::basic_string") align 8 %5, ptr noundef nonnull align 8 dereferenceable(112) %4)
          to label %_Z8cvtToStrIlENSt7__cxx1112basic_stringIcSt11char_traitsIcESaIcEEERKT_.exit unwind label %11

common.resume:                                    ; preds = %20, %15, %11
  %common.resume.op = phi { ptr, i32 } [ %12, %11 ], [ %16, %15 ], [ %21, %20 ]
  resume { ptr, i32 } %common.resume.op

11:                                               ; preds = %10, %7
  %12 = landingpad { ptr, i32 }
          cleanup
  call void @_ZNSt7__cxx1119basic_ostringstreamIcSt11char_traitsIcESaIcEED1Ev(ptr noundef nonnull align 8 dereferenceable(112) %4) #24
  br label %common.resume

_Z8cvtToStrIlENSt7__cxx1112basic_stringIcSt11char_traitsIcESaIcEEERKT_.exit: ; preds = %10
  call void @_ZNSt7__cxx1119basic_ostringstreamIcSt11char_traitsIcESaIcEED1Ev(ptr noundef nonnull align 8 dereferenceable(112) %4) #24
  call void @llvm.lifetime.end.p0(i64 376, ptr nonnull %4)
  %13 = invoke noundef nonnull align 8 dereferenceable(32) ptr @_ZNSt7__cxx1112basic_stringIcSt11char_traitsIcESaIcEE6insertEmPKc(ptr noundef nonnull align 8 dereferenceable(32) %5, i64 noundef 0, ptr noundef nonnull @.str.561)
          to label %14 unwind label %15

14:                                               ; preds = %_Z8cvtToStrIlENSt7__cxx1112basic_stringIcSt11char_traitsIcESaIcEEERKT_.exit
  call void @_ZNSt7__cxx1112basic_stringIcSt11char_traitsIcESaIcEEC1EOS4_(ptr noundef nonnull align 8 dereferenceable(32) %0, ptr noundef nonnull align 8 dereferenceable(32) %13) #24
  call void @_ZNSt7__cxx1112basic_stringIcSt11char_traitsIcESaIcEED1Ev(ptr noundef nonnull align 8 dereferenceable(32) %5) #24
  br label %22

15:                                               ; preds = %_Z8cvtToStrIlENSt7__cxx1112basic_stringIcSt11char_traitsIcESaIcEEERKT_.exit
  %16 = landingpad { ptr, i32 }
          cleanup
  call void @_ZNSt7__cxx1112basic_stringIcSt11char_traitsIcESaIcEED1Ev(ptr noundef nonnull align 8 dereferenceable(32) %5) #24
  br label %common.resume

17:                                               ; preds = %2
  call void @llvm.lifetime.start.p0(i64 376, ptr nonnull %3)
  call void @_ZNSt7__cxx1119basic_ostringstreamIcSt11char_traitsIcESaIcEEC1Ev(ptr noundef nonnull align 8 dereferenceable(112) %3), !noalias !10
  %18 = invoke noundef nonnull align 8 dereferenceable(8) ptr @_ZNSolsEl(ptr noundef nonnull align 8 dereferenceable(8) %3, i64 noundef %1)
          to label %19 unwind label %20, !noalias !10

19:                                               ; preds = %17
  invoke void @_ZNKSt7__cxx1119basic_ostringstreamIcSt11char_traitsIcESaIcEE3strEv(ptr dead_on_unwind writable sret(%"class.std::__cxx11::basic_string") align 8 %0, ptr noundef nonnull align 8 dereferenceable(112) %3)
          to label %_Z8cvtToStrIlENSt7__cxx1112basic_stringIcSt11char_traitsIcESaIcEEERKT_.exit1 unwind label %20

20:                                               ; preds = %19, %17
  %21 = landingpad { ptr, i32 }
          cleanup
  call void @_ZNSt7__cxx1119basic_ostringstreamIcSt11char_traitsIcESaIcEED1Ev(ptr noundef nonnull align 8 dereferenceable(112) %3) #24
  br label %common.resume

_Z8cvtToStrIlENSt7__cxx1112basic_stringIcSt11char_traitsIcESaIcEEERKT_.exit1: ; preds = %19
  call void @_ZNSt7__cxx1119basic_ostringstreamIcSt11char_traitsIcESaIcEED1Ev(ptr noundef nonnull align 8 dereferenceable(112) %3) #24
  call void @llvm.lifetime.end.p0(i64 376, ptr nonnull %3)
  br label %22

22:                                               ; preds = %_Z8cvtToStrIlENSt7__cxx1112basic_stringIcSt11char_traitsIcESaIcEEERKT_.exit1, %14
  ret void
}